target datalayout = "e-m:e-p270:32:32-p271:32:32-p272:64:64-i64:64-i128:128-f80:128-n8:16:32:64-S128"
target triple = "x86_64-pc-linux-gnu"

; Function Attrs: inlinehint mustprogress nounwind uwtable
define internal void @_ZL8rvec_addPKfS0_Pf(ptr noundef %0, ptr noundef %1, ptr noundef %2) #4 {
  %4 = alloca ptr, align 8
  %5 = alloca ptr, align 8
  %6 = alloca ptr, align 8
  %7 = alloca float, align 4
  %8 = alloca float, align 4
  %9 = alloca float, align 4
  store ptr %0, ptr %4, align 8, !tbaa !48
  store ptr %1, ptr %5, align 8, !tbaa !48
  store ptr %2, ptr %6, align 8, !tbaa !48
  call void @llvm.lifetime.start.p0(i64 4, ptr %7) #5
  call void @llvm.lifetime.start.p0(i64 4, ptr %8) #5
  call void @llvm.lifetime.start.p0(i64 4, ptr %9) #5
  %10 = load ptr, ptr %4, align 8, !tbaa !48
  %11 = getelementptr inbounds float, ptr %10, i64 0
  %12 = load float, ptr %11, align 4, !tbaa !50
  %13 = load ptr, ptr %5, align 8, !tbaa !48
  %14 = getelementptr inbounds float, ptr %13, i64 0
  %15 = load float, ptr %14, align 4, !tbaa !50
  %16 = fadd float %12, %15
  store float %16, ptr %7, align 4, !tbaa !50
  %17 = load ptr, ptr %4, align 8, !tbaa !48
  %18 = getelementptr inbounds float, ptr %17, i64 1
  %19 = load float, ptr %18, align 4, !tbaa !50
  %20 = load ptr, ptr %5, align 8, !tbaa !48
  %21 = getelementptr inbounds float, ptr %20, i64 1
  %22 = load float, ptr %21, align 4, !tbaa !50
  %23 = fadd float %19, %22
  store float %23, ptr %8, align 4, !tbaa !50
  %24 = load ptr, ptr %4, align 8, !tbaa !48
  %25 = getelementptr inbounds float, ptr %24, i64 2
  %26 = load float, ptr %25, align 4, !tbaa !50
  %27 = load ptr, ptr %5, align 8, !tbaa !48
  %28 = getelementptr inbounds float, ptr %27, i64 2
  %29 = load float, ptr %28, align 4, !tbaa !50
  %30 = fadd float %26, %29
  store float %30, ptr %9, align 4, !tbaa !50
  %31 = load float, ptr %7, align 4, !tbaa !50
  %32 = load ptr, ptr %6, align 8, !tbaa !48
  %33 = getelementptr inbounds float, ptr %32, i64 0
  store float %31, ptr %33, align 4, !tbaa !50
  %34 = load float, ptr %8, align 4, !tbaa !50
  %35 = load ptr, ptr %6, align 8, !tbaa !48
  %36 = getelementptr inbounds float, ptr %35, i64 1
  store float %34, ptr %36, align 4, !tbaa !50
  %37 = load float, ptr %9, align 4, !tbaa !50
  %38 = load ptr, ptr %6, align 8, !tbaa !48
  %39 = getelementptr inbounds float, ptr %38, i64 2
  store float %37, ptr %39, align 4, !tbaa !50
  call void @llvm.lifetime.end.p0(i64 4, ptr %9) #5
  call void @llvm.lifetime.end.p0(i64 4, ptr %8) #5
  call void @llvm.lifetime.end.p0(i64 4, ptr %7) #5
  ret void
}

; Function Attrs: inlinehint mustprogress nounwind uwtable
define internal void @_ZL8rvec_subPKfS0_Pf(ptr noundef %0, ptr noundef %1, ptr noundef %2) #4 {
  %4 = alloca ptr, align 8
  %5 = alloca ptr, align 8
  %6 = alloca ptr, align 8
  %7 = alloca float, align 4
  %8 = alloca float, align 4
  %9 = alloca float, align 4
  store ptr %0, ptr %4, align 8, !tbaa !48
  store ptr %1, ptr %5, align 8, !tbaa !48
  store ptr %2, ptr %6, align 8, !tbaa !48
  call void @llvm.lifetime.start.p0(i64 4, ptr %7) #5
  call void @llvm.lifetime.start.p0(i64 4, ptr %8) #5
  call void @llvm.lifetime.start.p0(i64 4, ptr %9) #5
  %10 = load ptr, ptr %4, align 8, !tbaa !48
  %11 = getelementptr inbounds float, ptr %10, i64 0
  %12 = load float, ptr %11, align 4, !tbaa !50
  %13 = load ptr, ptr %5, align 8, !tbaa !48
  %14 = getelementptr inbounds float, ptr %13, i64 0
  %15 = load float, ptr %14, align 4, !tbaa !50
  %16 = fsub float %12, %15
  store float %16, ptr %7, align 4, !tbaa !50
  %17 = load ptr, ptr %4, align 8, !tbaa !48
  %18 = getelementptr inbounds float, ptr %17, i64 1
  %19 = load float, ptr %18, align 4, !tbaa !50
  %20 = load ptr, ptr %5, align 8, !tbaa !48
  %21 = getelementptr inbounds float, ptr %20, i64 1
  %22 = load float, ptr %21, align 4, !tbaa !50
  %23 = fsub float %19, %22
  store float %23, ptr %8, align 4, !tbaa !50
  %24 = load ptr, ptr %4, align 8, !tbaa !48
  %25 = getelementptr inbounds float, ptr %24, i64 2
  %26 = load float, ptr %25, align 4, !tbaa !50
  %27 = load ptr, ptr %5, align 8, !tbaa !48
  %28 = getelementptr inbounds float, ptr %27, i64 2
  %29 = load float, ptr %28, align 4, !tbaa !50
  %30 = fsub float %26, %29
  store float %30, ptr %9, align 4, !tbaa !50
  %31 = load float, ptr %7, align 4, !tbaa !50
  %32 = load ptr, ptr %6, align 8, !tbaa !48
  %33 = getelementptr inbounds float, ptr %32, i64 0
  store float %31, ptr %33, align 4, !tbaa !50
  %34 = load float, ptr %8, align 4, !tbaa !50
  %35 = load ptr, ptr %6, align 8, !tbaa !48
  %36 = getelementptr inbounds float, ptr %35, i64 1
  store float %34, ptr %36, align 4, !tbaa !50
  %37 = load float, ptr %9, align 4, !tbaa !50
  %38 = load ptr, ptr %6, align 8, !tbaa !48
  %39 = getelementptr inbounds float, ptr %38, i64 2
  store float %37, ptr %39, align 4, !tbaa !50
  call void @llvm.lifetime.end.p0(i64 4, ptr %9) #5
  call void @llvm.lifetime.end.p0(i64 4, ptr %8) #5
  call void @llvm.lifetime.end.p0(i64 4, ptr %7) #5
  ret void
}

; Function Attrs: inlinehint mustprogress nounwind uwtable
define internal void @_ZL5svmulfPKfPf(float noundef %0, ptr noundef %1, ptr noundef %2) #4 {
  %4 = alloca float, align 4
  %5 = alloca ptr, align 8
  %6 = alloca ptr, align 8
  store float %0, ptr %4, align 4, !tbaa !50
  store ptr %1, ptr %5, align 8, !tbaa !48
  store ptr %2, ptr %6, align 8, !tbaa !48
  %7 = load float, ptr %4, align 4, !tbaa !50
  %8 = load ptr, ptr %5, align 8, !tbaa !48
  %9 = getelementptr inbounds float, ptr %8, i64 0
  %10 = load float, ptr %9, align 4, !tbaa !50
  %11 = fmul float %7, %10
  %12 = load ptr, ptr %6, align 8, !tbaa !48
  %13 = getelementptr inbounds float, ptr %12, i64 0
  store float %11, ptr %13, align 4, !tbaa !50
  %14 = load float, ptr %4, align 4, !tbaa !50
  %15 = load ptr, ptr %5, align 8, !tbaa !48
  %16 = getelementptr inbounds float, ptr %15, i64 1
  %17 = load float, ptr %16, align 4, !tbaa !50
  %18 = fmul float %14, %17
  %19 = load ptr, ptr %6, align 8, !tbaa !48
  %20 = getelementptr inbounds float, ptr %19, i64 1
  store float %18, ptr %20, align 4, !tbaa !50
  %21 = load float, ptr %4, align 4, !tbaa !50
  %22 = load ptr, ptr %5, align 8, !tbaa !48
  %23 = getelementptr inbounds float, ptr %22, i64 2
  %24 = load float, ptr %23, align 4, !tbaa !50
  %25 = fmul float %21, %24
  %26 = load ptr, ptr %6, align 8, !tbaa !48
  %27 = getelementptr inbounds float, ptr %26, i64 2
  store float %25, ptr %27, align 4, !tbaa !50
  ret void
}

; Function Attrs: inlinehint mustprogress nounwind uwtable
define internal void @_ZL9copy_rvecPKfPf(ptr noundef %0, ptr noundef %1) #4 {
  %3 = alloca ptr, align 8
  %4 = alloca ptr, align 8
  store ptr %0, ptr %3, align 8, !tbaa !48
  store ptr %1, ptr %4, align 8, !tbaa !48
  %5 = load ptr, ptr %3, align 8, !tbaa !48
  %6 = getelementptr inbounds float, ptr %5, i64 0
  %7 = load float, ptr %6, align 4, !tbaa !50
  %8 = load ptr, ptr %4, align 8, !tbaa !48
  %9 = getelementptr inbounds float, ptr %8, i64 0
  store float %7, ptr %9, align 4, !tbaa !50
  %10 = load ptr, ptr %3, align 8, !tbaa !48
  %11 = getelementptr inbounds float, ptr %10, i64 1
  %12 = load float, ptr %11, align 4, !tbaa !50
  %13 = load ptr, ptr %4, align 8, !tbaa !48
  %14 = getelementptr inbounds float, ptr %13, i64 1
  store float %12, ptr %14, align 4, !tbaa !50
  %15 = load ptr, ptr %3, align 8, !tbaa !48
  %16 = getelementptr inbounds float, ptr %15, i64 2
  %17 = load float, ptr %16, align 4, !tbaa !50
  %18 = load ptr, ptr %4, align 8, !tbaa !48
  %19 = getelementptr inbounds float, ptr %18, i64 2
  store float %17, ptr %19, align 4, !tbaa !50
  ret void
}

; Function Attrs: mustprogress nounwind uwtable
define void @_Z21calc_triclinic_imagesPA3_KfPA3_f(ptr noundef %0, ptr noundef %1) #2 {
  %3 = alloca ptr, align 8
  %4 = alloca ptr, align 8
  %5 = alloca i32, align 4
  store ptr %0, ptr %3, align 8, !tbaa !48
  store ptr %1, ptr %4, align 8, !tbaa !48
  call void @llvm.lifetime.start.p0(i64 4, ptr %5) #5
  %6 = load ptr, ptr %3, align 8, !tbaa !48
  %7 = getelementptr inbounds [3 x float], ptr %6, i64 0
  %8 = getelementptr inbounds [3 x float], ptr %7, i64 0, i64 0
  %9 = load ptr, ptr %4, align 8, !tbaa !48
  %10 = getelementptr inbounds [3 x float], ptr %9, i64 0
  %11 = getelementptr inbounds [3 x float], ptr %10, i64 0, i64 0
  call void @_ZL9copy_rvecPKfPf(ptr noundef %8, ptr noundef %11)
  %12 = load ptr, ptr %3, align 8, !tbaa !48
  %13 = getelementptr inbounds [3 x float], ptr %12, i64 1
  %14 = getelementptr inbounds [3 x float], ptr %13, i64 0, i64 0
  %15 = load ptr, ptr %4, align 8, !tbaa !48
  %16 = getelementptr inbounds [3 x float], ptr %15, i64 1
  %17 = getelementptr inbounds [3 x float], ptr %16, i64 0, i64 0
  call void @_ZL9copy_rvecPKfPf(ptr noundef %14, ptr noundef %17)
  %18 = load ptr, ptr %4, align 8, !tbaa !48
  %19 = getelementptr inbounds [3 x float], ptr %18, i64 1
  %20 = getelementptr inbounds [3 x float], ptr %19, i64 0, i64 0
  %21 = load float, ptr %20, align 4, !tbaa !50
  %22 = fcmp olt float %21, 0.000000e+00
  br i1 %22, label %23, label %30

23:                                               ; preds = %2
  %24 = load ptr, ptr %4, align 8, !tbaa !48
  %25 = getelementptr inbounds [3 x float], ptr %24, i64 1
  %26 = getelementptr inbounds [3 x float], ptr %25, i64 0, i64 0
  %27 = load ptr, ptr %4, align 8, !tbaa !48
  %28 = getelementptr inbounds [3 x float], ptr %27, i64 1
  %29 = getelementptr inbounds [3 x float], ptr %28, i64 0, i64 0
  call void @_ZL5svmulfPKfPf(float noundef -1.000000e+00, ptr noundef %26, ptr noundef %29)
  br label %30

30:                                               ; preds = %23, %2
  %31 = load ptr, ptr %4, align 8, !tbaa !48
  %32 = getelementptr inbounds [3 x float], ptr %31, i64 1
  %33 = getelementptr inbounds [3 x float], ptr %32, i64 0, i64 0
  %34 = load ptr, ptr %4, align 8, !tbaa !48
  %35 = getelementptr inbounds [3 x float], ptr %34, i64 0
  %36 = getelementptr inbounds [3 x float], ptr %35, i64 0, i64 0
  %37 = load ptr, ptr %4, align 8, !tbaa !48
  %38 = getelementptr inbounds [3 x float], ptr %37, i64 2
  %39 = getelementptr inbounds [3 x float], ptr %38, i64 0, i64 0
  call void @_ZL8rvec_subPKfS0_Pf(ptr noundef %33, ptr noundef %36, ptr noundef %39)
  store i32 0, ptr %5, align 4, !tbaa !36
  br label %40

40:                                               ; preds = %55, %30
  %41 = load i32, ptr %5, align 4, !tbaa !36
  %42 = icmp slt i32 %41, 3
  br i1 %42, label %43, label %58

43:                                               ; preds = %40
  %44 = load ptr, ptr %4, align 8, !tbaa !48
  %45 = load i32, ptr %5, align 4, !tbaa !36
  %46 = sext i32 %45 to i64
  %47 = getelementptr inbounds [3 x float], ptr %44, i64 %46
  %48 = getelementptr inbounds [3 x float], ptr %47, i64 0, i64 0
  %49 = load ptr, ptr %4, align 8, !tbaa !48
  %50 = load i32, ptr %5, align 4, !tbaa !36
  %51 = add nsw i32 3, %50
  %52 = sext i32 %51 to i64
  %53 = getelementptr inbounds [3 x float], ptr %49, i64 %52
  %54 = getelementptr inbounds [3 x float], ptr %53, i64 0, i64 0
  call void @_ZL5svmulfPKfPf(float noundef -1.000000e+00, ptr noundef %48, ptr noundef %54)
  br label %55

55:                                               ; preds = %43
  %56 = load i32, ptr %5, align 4, !tbaa !36
  %57 = add nsw i32 %56, 1
  store i32 %57, ptr %5, align 4, !tbaa !36
  br label %40, !llvm.loop !186

58:                                               ; preds = %40
  %59 = load ptr, ptr %3, align 8, !tbaa !48
  %60 = getelementptr inbounds [3 x float], ptr %59, i64 2
  %61 = getelementptr inbounds [3 x float], ptr %60, i64 0, i64 0
  %62 = load ptr, ptr %4, align 8, !tbaa !48
  %63 = getelementptr inbounds [3 x float], ptr %62, i64 6
  %64 = getelementptr inbounds [3 x float], ptr %63, i64 0, i64 0
  call void @_ZL9copy_rvecPKfPf(ptr noundef %61, ptr noundef %64)
  %65 = load ptr, ptr %4, align 8, !tbaa !48
  %66 = getelementptr inbounds [3 x float], ptr %65, i64 6
  %67 = getelementptr inbounds [3 x float], ptr %66, i64 0, i64 0
  %68 = load float, ptr %67, align 4, !tbaa !50
  %69 = fcmp olt float %68, 0.000000e+00
  br i1 %69, label %70, label %77

70:                                               ; preds = %58
  %71 = load ptr, ptr %4, align 8, !tbaa !48
  %72 = getelementptr inbounds [3 x float], ptr %71, i64 6
  %73 = getelementptr inbounds [3 x float], ptr %72, i64 0, i64 0
  %74 = load ptr, ptr %4, align 8, !tbaa !48
  %75 = getelementptr inbounds [3 x float], ptr %74, i64 6
  %76 = getelementptr inbounds [3 x float], ptr %75, i64 0, i64 0
  call void @_ZL5svmulfPKfPf(float noundef -1.000000e+00, ptr noundef %73, ptr noundef %76)
  br label %77

77:                                               ; preds = %70, %58
  store i32 0, ptr %5, align 4, !tbaa !36
  br label %78

78:                                               ; preds = %97, %77
  %79 = load i32, ptr %5, align 4, !tbaa !36
  %80 = icmp slt i32 %79, 3
  br i1 %80, label %81, label %100

81:                                               ; preds = %78
  %82 = load ptr, ptr %4, align 8, !tbaa !48
  %83 = getelementptr inbounds [3 x float], ptr %82, i64 6
  %84 = getelementptr inbounds [3 x float], ptr %83, i64 0, i64 0
  %85 = load ptr, ptr %4, align 8, !tbaa !48
  %86 = load i32, ptr %5, align 4, !tbaa !36
  %87 = add nsw i32 %86, 1
  %88 = sext i32 %87 to i64
  %89 = getelementptr inbounds [3 x float], ptr %85, i64 %88
  %90 = getelementptr inbounds [3 x float], ptr %89, i64 0, i64 0
  %91 = load ptr, ptr %4, align 8, !tbaa !48
  %92 = load i32, ptr %5, align 4, !tbaa !36
  %93 = add nsw i32 7, %92
  %94 = sext i32 %93 to i64
  %95 = getelementptr inbounds [3 x float], ptr %91, i64 %94
  %96 = getelementptr inbounds [3 x float], ptr %95, i64 0, i64 0
  call void @_ZL8rvec_addPKfS0_Pf(ptr noundef %84, ptr noundef %90, ptr noundef %96)
  br label %97

97:                                               ; preds = %81
  %98 = load i32, ptr %5, align 4, !tbaa !36
  %99 = add nsw i32 %98, 1
  store i32 %99, ptr %5, align 4, !tbaa !36
  br label %78, !llvm.loop !187

100:                                              ; preds = %78
  store i32 0, ptr %5, align 4, !tbaa !36
  br label %101

101:                                              ; preds = %119, %100
  %102 = load i32, ptr %5, align 4, !tbaa !36
  %103 = icmp slt i32 %102, 4
  br i1 %103, label %104, label %122

104:                                              ; preds = %101
  %105 = load ptr, ptr %4, align 8, !tbaa !48
  %106 = load i32, ptr %5, align 4, !tbaa !36
  %107 = add nsw i32 2, %106
  %108 = srem i32 %107, 4
  %109 = add nsw i32 6, %108
  %110 = sext i32 %109 to i64
  %111 = getelementptr inbounds [3 x float], ptr %105, i64 %110
  %112 = getelementptr inbounds [3 x float], ptr %111, i64 0, i64 0
  %113 = load ptr, ptr %4, align 8, !tbaa !48
  %114 = load i32, ptr %5, align 4, !tbaa !36
  %115 = add nsw i32 10, %114
  %116 = sext i32 %115 to i64
  %117 = getelementptr inbounds [3 x float], ptr %113, i64 %116
  %118 = getelementptr inbounds [3 x float], ptr %117, i64 0, i64 0
  call void @_ZL5svmulfPKfPf(float noundef -1.000000e+00, ptr noundef %112, ptr noundef %118)
  br label %119

119:                                              ; preds = %104
  %120 = load i32, ptr %5, align 4, !tbaa !36
  %121 = add nsw i32 %120, 1
  store i32 %121, ptr %5, align 4, !tbaa !36
  br label %101, !llvm.loop !188

122:                                              ; preds = %101
  call void @llvm.lifetime.end.p0(i64 4, ptr %5) #5
  ret void
}