; Function Attrs: mustprogress nofree norecurse nosync nounwind memory(argmem: readwrite) uwtable
define void @_Z21calc_triclinic_imagesPA3_KfPA3_f(ptr noundef readonly captures(none) %0, ptr noundef captures(none) initializes((0, 36)) %1) local_unnamed_addr #18 {
  %3 = load float, ptr %0, align 4, !tbaa !21
  store float %3, ptr %1, align 4, !tbaa !21
  %4 = getelementptr inbounds nuw i8, ptr %0, i64 4
  %5 = load float, ptr %4, align 4, !tbaa !21
  %6 = getelementptr inbounds nuw i8, ptr %1, i64 4
  store float %5, ptr %6, align 4, !tbaa !21
  %7 = getelementptr inbounds nuw i8, ptr %0, i64 8
  %8 = load float, ptr %7, align 4, !tbaa !21
  %9 = getelementptr inbounds nuw i8, ptr %1, i64 8
  store float %8, ptr %9, align 4, !tbaa !21
  %10 = getelementptr inbounds nuw i8, ptr %0, i64 12
  %11 = getelementptr inbounds nuw i8, ptr %1, i64 12
  %12 = load float, ptr %10, align 4, !tbaa !21
  store float %12, ptr %11, align 4, !tbaa !21
  %13 = getelementptr inbounds nuw i8, ptr %0, i64 16
  %14 = load float, ptr %13, align 4, !tbaa !21
  %15 = getelementptr inbounds nuw i8, ptr %1, i64 16
  store float %14, ptr %15, align 4, !tbaa !21
  %16 = getelementptr inbounds nuw i8, ptr %0, i64 20
  %17 = load float, ptr %16, align 4, !tbaa !21
  %18 = getelementptr inbounds nuw i8, ptr %1, i64 20
  store float %17, ptr %18, align 4, !tbaa !21
  %19 = fcmp olt float %12, 0.000000e+00
  br i1 %19, label %20, label %24

20:                                               ; preds = %2
  %21 = fneg float %12
  store float %21, ptr %11, align 4, !tbaa !21
  %22 = fneg float %14
  store float %22, ptr %15, align 4, !tbaa !21
  %23 = fneg float %17
  store float %23, ptr %18, align 4, !tbaa !21
  br label %24

24:                                               ; preds = %20, %2
  %25 = phi float [ %23, %20 ], [ %17, %2 ]
  %26 = phi float [ %22, %20 ], [ %14, %2 ]
  %27 = phi float [ %21, %20 ], [ %12, %2 ]
  %28 = getelementptr inbounds nuw i8, ptr %1, i64 24
  %29 = fsub float %27, %3
  %30 = fsub float %26, %5
  %31 = fsub float %25, %8
  store float %29, ptr %28, align 4, !tbaa !21
  %32 = getelementptr inbounds nuw i8, ptr %1, i64 28
  store float %30, ptr %32, align 4, !tbaa !21
  %33 = getelementptr inbounds nuw i8, ptr %1, i64 32
  store float %31, ptr %33, align 4, !tbaa !21
  br label %34

34:                                               ; preds = %24, %34
  %indvars.iv = phi i64 [ 0, %24 ], [ %indvars.iv.next, %34 ]
  %35 = getelementptr inbounds nuw [3 x float], ptr %1, i64 %indvars.iv
  %36 = getelementptr inbounds nuw i8, ptr %35, i64 36
  %37 = load float, ptr %35, align 4, !tbaa !21
  %38 = fneg float %37
  store float %38, ptr %36, align 4, !tbaa !21
  %39 = getelementptr inbounds nuw i8, ptr %35, i64 4
  %40 = load float, ptr %39, align 4, !tbaa !21
  %41 = fneg float %40
  %42 = getelementptr inbounds nuw i8, ptr %35, i64 40
  store float %41, ptr %42, align 4, !tbaa !21
  %43 = getelementptr inbounds nuw i8, ptr %35, i64 8
  %44 = load float, ptr %43, align 4, !tbaa !21
  %45 = fneg float %44
  %46 = getelementptr inbounds nuw i8, ptr %35, i64 44
  store float %45, ptr %46, align 4, !tbaa !21
  %indvars.iv.next = add nuw nsw i64 %indvars.iv, 1
  %exitcond.not = icmp eq i64 %indvars.iv.next, 3
  br i1 %exitcond.not, label %47, label %34, !llvm.loop !104

47:                                               ; preds = %34
  %48 = getelementptr inbounds nuw i8, ptr %0, i64 24
  %49 = getelementptr inbounds nuw i8, ptr %1, i64 72
  %50 = load float, ptr %48, align 4, !tbaa !21
  store float %50, ptr %49, align 4, !tbaa !21
  %51 = getelementptr inbounds nuw i8, ptr %0, i64 28
  %52 = load float, ptr %51, align 4, !tbaa !21
  %53 = getelementptr inbounds nuw i8, ptr %1, i64 76
  store float %52, ptr %53, align 4, !tbaa !21
  %54 = getelementptr inbounds nuw i8, ptr %0, i64 32
  %55 = load float, ptr %54, align 4, !tbaa !21
  %56 = getelementptr inbounds nuw i8, ptr %1, i64 80
  store float %55, ptr %56, align 4, !tbaa !21
  %57 = fcmp olt float %50, 0.000000e+00
  br i1 %57, label %58, label %62

58:                                               ; preds = %47
  %59 = fneg float %50
  store float %59, ptr %49, align 4, !tbaa !21
  %60 = fneg float %52
  store float %60, ptr %53, align 4, !tbaa !21
  %61 = fneg float %55
  store float %61, ptr %56, align 4, !tbaa !21
  br label %62

62:                                               ; preds = %58, %47
  %63 = phi float [ %61, %58 ], [ %55, %47 ]
  %64 = phi float [ %60, %58 ], [ %52, %47 ]
  %65 = phi float [ %59, %58 ], [ %50, %47 ]
  br label %66

66:                                               ; preds = %62, %66
  %indvars.iv37 = phi i64 [ 0, %62 ], [ %indvars.iv.next38, %66 ]
  %indvars.iv.next38 = add nuw nsw i64 %indvars.iv37, 1
  %67 = getelementptr inbounds nuw [3 x float], ptr %1, i64 %indvars.iv.next38
  %68 = getelementptr inbounds nuw [3 x float], ptr %1, i64 %indvars.iv37
  %69 = getelementptr inbounds nuw i8, ptr %68, i64 84
  %70 = load float, ptr %67, align 4, !tbaa !21
  %71 = fadd float %65, %70
  %72 = getelementptr inbounds nuw i8, ptr %67, i64 4
  %73 = load float, ptr %72, align 4, !tbaa !21
  %74 = fadd float %64, %73
  %75 = getelementptr inbounds nuw i8, ptr %67, i64 8
  %76 = load float, ptr %75, align 4, !tbaa !21
  %77 = fadd float %63, %76
  store float %71, ptr %69, align 4, !tbaa !21
  %78 = getelementptr inbounds nuw i8, ptr %68, i64 88
  store float %74, ptr %78, align 4, !tbaa !21
  %79 = getelementptr inbounds nuw i8, ptr %68, i64 92
  store float %77, ptr %79, align 4, !tbaa !21
  %exitcond40.not = icmp eq i64 %indvars.iv.next38, 3
  br i1 %exitcond40.not, label %.preheader, label %66, !llvm.loop !105

.preheader:                                       ; preds = %66, %.preheader
  %indvars.iv41 = phi i64 [ %indvars.iv.next42, %.preheader ], [ 0, %66 ]
  %80 = and i64 %indvars.iv41, 4294967295
  %81 = xor i64 %80, 2
  %82 = getelementptr inbounds nuw [3 x float], ptr %1, i64 %81
  %83 = getelementptr inbounds nuw i8, ptr %82, i64 72
  %84 = getelementptr inbounds nuw [3 x float], ptr %1, i64 %indvars.iv41
  %85 = getelementptr inbounds nuw i8, ptr %84, i64 120
  %86 = load float, ptr %83, align 4, !tbaa !21
  %87 = fneg float %86
  store float %87, ptr %85, align 4, !tbaa !21
  %88 = getelementptr inbounds nuw i8, ptr %82, i64 76
  %89 = load float, ptr %88, align 4, !tbaa !21
  %90 = fneg float %89
  %91 = getelementptr inbounds nuw i8, ptr %84, i64 124
  store float %90, ptr %91, align 4, !tbaa !21
  %92 = getelementptr inbounds nuw i8, ptr %82, i64 80
  %93 = load float, ptr %92, align 4, !tbaa !21
  %94 = fneg float %93
  %95 = getelementptr inbounds nuw i8, ptr %84, i64 128
  store float %94, ptr %95, align 4, !tbaa !21
  %indvars.iv.next42 = add nuw nsw i64 %indvars.iv41, 1
  %exitcond44.not = icmp eq i64 %indvars.iv.next42, 4
  br i1 %exitcond44.not, label %96, label %.preheader, !llvm.loop !106

96:                                               ; preds = %.preheader
  ret void
}